target datalayout = "e-m:e-p270:32:32-p271:32:32-p272:64:64-i64:64-i128:128-f80:128-n8:16:32:64-S128"
target triple = "x86_64-pc-linux-gnu"

%struct.pg_enc2name = type { ptr, i32 }

@pg_enc2name_tbl = external constant [0 x %struct.pg_enc2name], align 8
@.str.1 = private unnamed_addr constant [10 x i8] c"mbutils.c\00", align 1
@.str.12 = private unnamed_addr constant [31 x i8] c"invalid source encoding ID: %d\00", align 1
@__func__.check_encoding_conversion_args = private unnamed_addr constant [31 x i8] c"check_encoding_conversion_args\00", align 1
@.str.13 = private unnamed_addr constant [44 x i8] c"expected source encoding \22%s\22, but got \22%s\22\00", align 1
@.str.14 = private unnamed_addr constant [36 x i8] c"invalid destination encoding ID: %d\00", align 1
@.str.15 = private unnamed_addr constant [49 x i8] c"expected destination encoding \22%s\22, but got \22%s\22\00", align 1
@.str.16 = private unnamed_addr constant [48 x i8] c"encoding conversion length must not be negative\00", align 1

; Function Attrs: nounwind uwtable
define dso_local void @check_encoding_conversion_args(i32 noundef %0, i32 noundef %1, i32 noundef %2, i32 noundef %3, i32 noundef %4) #1 {
  %6 = alloca i32, align 4
  %7 = alloca i32, align 4
  %8 = alloca i32, align 4
  %9 = alloca i32, align 4
  %10 = alloca i32, align 4
  store i32 %0, ptr %6, align 4
  store i32 %1, ptr %7, align 4
  store i32 %2, ptr %8, align 4
  store i32 %3, ptr %9, align 4
  store i32 %4, ptr %10, align 4
  %11 = load i32, ptr %6, align 4
  %12 = icmp sge i32 %11, 0
  br i1 %12, label %13, label %16

13:                                               ; preds = %5
  %14 = load i32, ptr %6, align 4
  %15 = icmp slt i32 %14, 42
  br i1 %15, label %27, label %16

16:                                               ; preds = %13, %5
  br label %17

17:                                               ; preds = %16
  br i1 true, label %18, label %20

18:                                               ; preds = %17
  %19 = call zeroext i1 @errstart_cold(i32 noundef 21, ptr noundef null) #10
  br i1 %19, label %22, label %25

20:                                               ; preds = %17
  %21 = call zeroext i1 @errstart(i32 noundef 21, ptr noundef null)
  br i1 %21, label %22, label %25

22:                                               ; preds = %20, %18
  %23 = load i32, ptr %6, align 4
  %24 = call i32 (ptr, ...) @errmsg_internal(ptr noundef @.str.12, i32 noundef %23)
  call void @errfinish(ptr noundef @.str.1, i32 noundef 1676, ptr noundef @__func__.check_encoding_conversion_args)
  br label %25

25:                                               ; preds = %22, %20, %18
  unreachable

26:                                               ; No predecessors!
  br label %27

27:                                               ; preds = %26, %13
  %28 = load i32, ptr %6, align 4
  %29 = load i32, ptr %9, align 4
  %30 = icmp ne i32 %28, %29
  br i1 %30, label %31, label %54

31:                                               ; preds = %27
  %32 = load i32, ptr %9, align 4
  %33 = icmp sge i32 %32, 0
  br i1 %33, label %34, label %54

34:                                               ; preds = %31
  br label %35

35:                                               ; preds = %34
  br i1 true, label %36, label %38

36:                                               ; preds = %35
  %37 = call zeroext i1 @errstart_cold(i32 noundef 21, ptr noundef null) #10
  br i1 %37, label %40, label %52

38:                                               ; preds = %35
  %39 = call zeroext i1 @errstart(i32 noundef 21, ptr noundef null)
  br i1 %39, label %40, label %52

40:                                               ; preds = %38, %36
  %41 = load i32, ptr %9, align 4
  %42 = sext i32 %41 to i64
  %43 = getelementptr inbounds [0 x %struct.pg_enc2name], ptr @pg_enc2name_tbl, i64 0, i64 %42
  %44 = getelementptr inbounds nuw %struct.pg_enc2name, ptr %43, i32 0, i32 0
  %45 = load ptr, ptr %44, align 8
  %46 = load i32, ptr %6, align 4
  %47 = sext i32 %46 to i64
  %48 = getelementptr inbounds [0 x %struct.pg_enc2name], ptr @pg_enc2name_tbl, i64 0, i64 %47
  %49 = getelementptr inbounds nuw %struct.pg_enc2name, ptr %48, i32 0, i32 0
  %50 = load ptr, ptr %49, align 8
  %51 = call i32 (ptr, ...) @errmsg_internal(ptr noundef @.str.13, ptr noundef %45, ptr noundef %50)
  call void @errfinish(ptr noundef @.str.1, i32 noundef 1680, ptr noundef @__func__.check_encoding_conversion_args)
  br label %52

52:                                               ; preds = %40, %38, %36
  unreachable

53:                                               ; No predecessors!
  br label %54

54:                                               ; preds = %53, %31, %27
  %55 = load i32, ptr %7, align 4
  %56 = icmp sge i32 %55, 0
  br i1 %56, label %57, label %60

57:                                               ; preds = %54
  %58 = load i32, ptr %7, align 4
  %59 = icmp slt i32 %58, 42
  br i1 %59, label %71, label %60

60:                                               ; preds = %57, %54
  br label %61

61:                                               ; preds = %60
  br i1 true, label %62, label %64

62:                                               ; preds = %61
  %63 = call zeroext i1 @errstart_cold(i32 noundef 21, ptr noundef null) #10
  br i1 %63, label %66, label %69

64:                                               ; preds = %61
  %65 = call zeroext i1 @errstart(i32 noundef 21, ptr noundef null)
  br i1 %65, label %66, label %69

66:                                               ; preds = %64, %62
  %67 = load i32, ptr %7, align 4
  %68 = call i32 (ptr, ...) @errmsg_internal(ptr noundef @.str.14, i32 noundef %67)
  call void @errfinish(ptr noundef @.str.1, i32 noundef 1682, ptr noundef @__func__.check_encoding_conversion_args)
  br label %69

69:                                               ; preds = %66, %64, %62
  unreachable

70:                                               ; No predecessors!
  br label %71

71:                                               ; preds = %70, %57
  %72 = load i32, ptr %7, align 4
  %73 = load i32, ptr %10, align 4
  %74 = icmp ne i32 %72, %73
  br i1 %74, label %75, label %98

75:                                               ; preds = %71
  %76 = load i32, ptr %10, align 4
  %77 = icmp sge i32 %76, 0
  br i1 %77, label %78, label %98

78:                                               ; preds = %75
  br label %79

79:                                               ; preds = %78
  br i1 true, label %80, label %82

80:                                               ; preds = %79
  %81 = call zeroext i1 @errstart_cold(i32 noundef 21, ptr noundef null) #10
  br i1 %81, label %84, label %96

82:                                               ; preds = %79
  %83 = call zeroext i1 @errstart(i32 noundef 21, ptr noundef null)
  br i1 %83, label %84, label %96

84:                                               ; preds = %82, %80
  %85 = load i32, ptr %10, align 4
  %86 = sext i32 %85 to i64
  %87 = getelementptr inbounds [0 x %struct.pg_enc2name], ptr @pg_enc2name_tbl, i64 0, i64 %86
  %88 = getelementptr inbounds nuw %struct.pg_enc2name, ptr %87, i32 0, i32 0
  %89 = load ptr, ptr %88, align 8
  %90 = load i32, ptr %7, align 4
  %91 = sext i32 %90 to i64
  %92 = getelementptr inbounds [0 x %struct.pg_enc2name], ptr @pg_enc2name_tbl, i64 0, i64 %91
  %93 = getelementptr inbounds nuw %struct.pg_enc2name, ptr %92, i32 0, i32 0
  %94 = load ptr, ptr %93, align 8
  %95 = call i32 (ptr, ...) @errmsg_internal(ptr noundef @.str.15, ptr noundef %89, ptr noundef %94)
  call void @errfinish(ptr noundef @.str.1, i32 noundef 1686, ptr noundef @__func__.check_encoding_conversion_args)
  br label %96

96:                                               ; preds = %84, %82, %80
  unreachable

97:                                               ; No predecessors!
  br label %98

98:                                               ; preds = %97, %75, %71
  %99 = load i32, ptr %8, align 4
  %100 = icmp slt i32 %99, 0
  br i1 %100, label %101, label %111

101:                                              ; preds = %98
  br label %102

102:                                              ; preds = %101
  br i1 true, label %103, label %105

103:                                              ; preds = %102
  %104 = call zeroext i1 @errstart_cold(i32 noundef 21, ptr noundef null) #10
  br i1 %104, label %107, label %109

105:                                              ; preds = %102
  %106 = call zeroext i1 @errstart(i32 noundef 21, ptr noundef null)
  br i1 %106, label %107, label %109

107:                                              ; preds = %105, %103
  %108 = call i32 (ptr, ...) @errmsg_internal(ptr noundef @.str.16)
  call void @errfinish(ptr noundef @.str.1, i32 noundef 1688, ptr noundef @__func__.check_encoding_conversion_args)
  br label %109

109:                                              ; preds = %107, %105, %103
  unreachable

110:                                              ; No predecessors!
  br label %111

111:                                              ; preds = %110, %98
  ret void
}