; Function Attrs: nounwind uwtable
define dso_local void @check_encoding_conversion_args(i32 noundef %0, i32 noundef %1, i32 noundef %2, i32 noundef %3, i32 noundef %4) local_unnamed_addr #0 {
  %or.cond = icmp ult i32 %0, 42
  br i1 %or.cond, label %9, label %6

6:                                                ; preds = %5
  %7 = tail call zeroext i1 @errstart_cold(i32 noundef 21, ptr noundef null) #14
  tail call void @llvm.assume(i1 %7)
  %8 = tail call i32 (ptr, ...) @errmsg_internal(ptr noundef nonnull @.str.12, i32 noundef %0) #13
  tail call void @errfinish(ptr noundef nonnull @.str.1, i32 noundef 1676, ptr noundef nonnull @__func__.check_encoding_conversion_args) #13
  unreachable

9:                                                ; preds = %5
  %10 = icmp ne i32 %0, %3
  %11 = icmp sgt i32 %3, -1
  %or.cond3 = and i1 %10, %11
  br i1 %or.cond3, label %12, label %21

12:                                               ; preds = %9
  %13 = tail call zeroext i1 @errstart_cold(i32 noundef 21, ptr noundef null) #14
  tail call void @llvm.assume(i1 %13)
  %14 = zext nneg i32 %3 to i64
  %15 = getelementptr inbounds nuw [0 x %struct.pg_enc2name], ptr @pg_enc2name_tbl, i64 0, i64 %14
  %16 = load ptr, ptr %15, align 8
  %17 = zext nneg i32 %0 to i64
  %18 = getelementptr inbounds nuw [0 x %struct.pg_enc2name], ptr @pg_enc2name_tbl, i64 0, i64 %17
  %19 = load ptr, ptr %18, align 8
  %20 = tail call i32 (ptr, ...) @errmsg_internal(ptr noundef nonnull @.str.13, ptr noundef %16, ptr noundef %19) #13
  tail call void @errfinish(ptr noundef nonnull @.str.1, i32 noundef 1680, ptr noundef nonnull @__func__.check_encoding_conversion_args) #13
  unreachable

21:                                               ; preds = %9
  %or.cond5 = icmp ult i32 %1, 42
  br i1 %or.cond5, label %25, label %22

22:                                               ; preds = %21
  %23 = tail call zeroext i1 @errstart_cold(i32 noundef 21, ptr noundef null) #14
  tail call void @llvm.assume(i1 %23)
  %24 = tail call i32 (ptr, ...) @errmsg_internal(ptr noundef nonnull @.str.14, i32 noundef %1) #13
  tail call void @errfinish(ptr noundef nonnull @.str.1, i32 noundef 1682, ptr noundef nonnull @__func__.check_encoding_conversion_args) #13
  unreachable

25:                                               ; preds = %21
  %26 = icmp ne i32 %1, %4
  %27 = icmp sgt i32 %4, -1
  %or.cond7 = and i1 %26, %27
  br i1 %or.cond7, label %28, label %37

28:                                               ; preds = %25
  %29 = tail call zeroext i1 @errstart_cold(i32 noundef 21, ptr noundef null) #14
  tail call void @llvm.assume(i1 %29)
  %30 = zext nneg i32 %4 to i64
  %31 = getelementptr inbounds nuw [0 x %struct.pg_enc2name], ptr @pg_enc2name_tbl, i64 0, i64 %30
  %32 = load ptr, ptr %31, align 8
  %33 = zext nneg i32 %1 to i64
  %34 = getelementptr inbounds nuw [0 x %struct.pg_enc2name], ptr @pg_enc2name_tbl, i64 0, i64 %33
  %35 = load ptr, ptr %34, align 8
  %36 = tail call i32 (ptr, ...) @errmsg_internal(ptr noundef nonnull @.str.15, ptr noundef %32, ptr noundef %35) #13
  tail call void @errfinish(ptr noundef nonnull @.str.1, i32 noundef 1686, ptr noundef nonnull @__func__.check_encoding_conversion_args) #13
  unreachable

37:                                               ; preds = %25
  %38 = icmp slt i32 %2, 0
  br i1 %38, label %39, label %42

39:                                               ; preds = %37
  %40 = tail call zeroext i1 @errstart_cold(i32 noundef 21, ptr noundef null) #14
  tail call void @llvm.assume(i1 %40)
  %41 = tail call i32 (ptr, ...) @errmsg_internal(ptr noundef nonnull @.str.16) #13
  tail call void @errfinish(ptr noundef nonnull @.str.1, i32 noundef 1688, ptr noundef nonnull @__func__.check_encoding_conversion_args) #13
  unreachable

42:                                               ; preds = %37
  ret void
}